; Function Attrs: mustprogress nounwind uwtable
define dso_local void @_ZN5clang16DumpTokensAction13ExecuteActionEv(ptr nocapture noundef nonnull readonly align 8 dereferenceable(104) %0) unnamed_addr #0 align 2 {
  %2 = alloca %"class.clang::Token", align 8
  %3 = getelementptr inbounds nuw i8, ptr %0, i64 96
  %4 = load ptr, ptr %3, align 8
  %5 = getelementptr inbounds nuw i8, ptr %4, i64 80
  %6 = load ptr, ptr %5, align 8
  tail call void @_ZN5clang12Preprocessor19EnterMainSourceFileEv(ptr noundef nonnull align 8 dereferenceable(3288) %6) #21
  %7 = getelementptr inbounds nuw i8, ptr %2, i64 16
  br label %8

8:                                                ; preds = %_ZN4llvm11raw_ostreamlsEPKc.exit, %1
  call void @_ZN5clang12Preprocessor3LexERNS_5TokenE(ptr noundef nonnull align 8 dereferenceable(3288) %6, ptr noundef nonnull align 8 dereferenceable(20) %2) #21
  call void @_ZNK5clang12Preprocessor9DumpTokenERKNS_5TokenEb(ptr noundef nonnull align 8 dereferenceable(3288) %6, ptr noundef nonnull align 8 dereferenceable(20) %2, i1 noundef zeroext true) #21
  %9 = call noundef nonnull align 8 dereferenceable(96) ptr @_ZN4llvm4errsEv() #21
  %10 = getelementptr inbounds nuw i8, ptr %9, i64 24
  %11 = load ptr, ptr %10, align 8
  %12 = getelementptr inbounds nuw i8, ptr %9, i64 32
  %13 = load ptr, ptr %12, align 8
  %14 = icmp eq ptr %11, %13
  br i1 %14, label %15, label %17

15:                                               ; preds = %8
  %16 = call noundef nonnull align 8 dereferenceable(48) ptr @_ZN4llvm11raw_ostream5writeEPKcm(ptr noundef nonnull align 8 dereferenceable(48) %9, ptr noundef nonnull @.str.9, i64 noundef 1) #21
  br label %_ZN4llvm11raw_ostreamlsEPKc.exit

17:                                               ; preds = %8
  store i8 10, ptr %13, align 1
  %18 = load ptr, ptr %12, align 8
  %19 = getelementptr inbounds i8, ptr %18, i64 1
  store ptr %19, ptr %12, align 8
  br label %_ZN4llvm11raw_ostreamlsEPKc.exit

_ZN4llvm11raw_ostreamlsEPKc.exit:                 ; preds = %15, %17
  %20 = load i16, ptr %7, align 8
  %.not = icmp eq i16 %20, 1
  br i1 %.not, label %21, label %8, !llvm.loop !121

21:                                               ; preds = %_ZN4llvm11raw_ostreamlsEPKc.exit
  ret void
}